; Function Attrs: mustprogress uwtable
define void @_ZN6google8protobuf2io7Printer15IndentIfAtStartEv(ptr noundef nonnull align 8 dereferenceable(256) %this) local_unnamed_addr #3 align 2 personality ptr @__gxx_personality_v0 {
entry:
  %at_start_of_line_ = getelementptr inbounds i8, ptr %this, i64 112
  %0 = load i8, ptr %at_start_of_line_, align 8
  %1 = and i8 %0, 1
  %tobool.not = icmp eq i8 %1, 0
  br i1 %tobool.not, label %return, label %for.cond.preheader

for.cond.preheader:                               ; preds = %entry
  %indent_ = getelementptr inbounds i8, ptr %this, i64 104
  %2 = load i64, ptr %indent_, align 8
  %cmp2.not = icmp eq i64 %2, 0
  br i1 %cmp2.not, label %for.end, label %for.body

for.body:                                         ; preds = %for.cond.preheader, %for.body
  %i.03 = phi i64 [ %inc, %for.body ], [ 0, %for.cond.preheader ]
  tail call void @_ZN6google8protobuf2io16zc_sink_internal22ZeroCopyStreamByteSink6AppendEPKcm(ptr noundef nonnull align 8 dereferenceable(33) %this, ptr noundef nonnull @.str.1, i64 noundef 1)
  %inc = add nuw i64 %i.03, 1
  %3 = load i64, ptr %indent_, align 8
  %cmp = icmp ult i64 %inc, %3
  br i1 %cmp, label %for.body, label %for.end, !llvm.loop !96

for.end:                                          ; preds = %for.body, %for.cond.preheader
  store i8 0, ptr %at_start_of_line_, align 8
  br label %return

return:                                           ; preds = %entry, %for.end
  ret void
}